target datalayout = "e-m:e-p270:32:32-p271:32:32-p272:64:64-i64:64-i128:128-f80:128-n8:16:32:64-S128"
target triple = "x86_64-pc-linux-gnu"

@_ZN12cmCursesForm11CurrentFormE = dso_local global ptr null, align 8

; Function Attrs: mustprogress uwtable
define dso_local void @onsig(i32 noundef %0) #5 {
  %2 = alloca i32, align 4
  store i32 %0, ptr %2, align 4, !tbaa !30
  %3 = load ptr, ptr @_ZN12cmCursesForm11CurrentFormE, align 8, !tbaa !32
  %4 = icmp ne ptr %3, null
  br i1 %4, label %5, label %7

5:                                                ; preds = %1
  %6 = load ptr, ptr @_ZN12cmCursesForm11CurrentFormE, align 8, !tbaa !32
  call void @_ZN12cmCursesForm12HandleResizeEv(ptr noundef nonnull align 8 dereferenceable(16) %6)
  br label %7

7:                                                ; preds = %5, %1
  %8 = call ptr @signal(i32 noundef 28, ptr noundef @onsig) #3
  ret void
}