; Function Attrs: mustprogress uwtable
define dso_local void @onsig(i32 %0) #7 {
  %2 = load ptr, ptr @_ZN12cmCursesForm11CurrentFormE, align 8, !tbaa !14
  %.not = icmp eq ptr %2, null
  br i1 %.not, label %4, label %3

3:                                                ; preds = %1
  tail call void @_ZN12cmCursesForm12HandleResizeEv(ptr noundef nonnull align 8 dereferenceable(16) %2)
  br label %4

4:                                                ; preds = %3, %1
  %5 = tail call ptr @signal(i32 noundef 28, ptr noundef nonnull @onsig) #26
  ret void
}